; Function Attrs: nounwind uwtable
define ptr @l_Lake_Hash_toJson___boxed(ptr noundef %0) #0 {
  %2 = getelementptr i8, ptr %0, i64 8
  %.val = load i64, ptr %2, align 8, !tbaa !15
  %3 = ptrtoint ptr %0 to i64
  %4 = and i64 %3, 1
  %.not = icmp eq i64 %4, 0
  br i1 %.not, label %5, label %lean_dec.exit

5:                                                ; preds = %1
  %6 = load i32, ptr %0, align 4, !tbaa !4
  %7 = icmp sgt i32 %6, 1
  br i1 %7, label %8, label %10, !prof !13

8:                                                ; preds = %5
  %9 = add nsw i32 %6, -1
  store i32 %9, ptr %0, align 4, !tbaa !4
  br label %lean_dec.exit

10:                                               ; preds = %5
  %.not.i = icmp eq i32 %6, 0
  br i1 %.not.i, label %lean_dec.exit, label %11

11:                                               ; preds = %10
  tail call void @lean_dec_ref_cold(ptr noundef nonnull %0) #4
  br label %lean_dec.exit

lean_dec.exit:                                    ; preds = %11, %10, %8, %1
  %12 = icmp sgt i64 %.val, -1
  br i1 %12, label %13, label %17, !prof !13

13:                                               ; preds = %lean_dec.exit
  %14 = shl nuw i64 %.val, 1
  %15 = or disjoint i64 %14, 1
  %16 = inttoptr i64 %15 to ptr
  br label %l_Lake_Hash_toJson.exit

17:                                               ; preds = %lean_dec.exit
  %18 = tail call ptr @lean_big_uint64_to_nat(i64 noundef %.val) #4
  br label %l_Lake_Hash_toJson.exit

l_Lake_Hash_toJson.exit:                          ; preds = %13, %17
  %.0.i.i = phi ptr [ %16, %13 ], [ %18, %17 ]
  %19 = tail call ptr @l_Lean_bignumToJson(ptr noundef %.0.i.i) #4
  ret ptr %19
}